; Function Attrs: cold nounwind optsize uwtable
define internal range(i32 -1094995529, 1) i32 @decode_init(ptr noundef %0) #0 {
  %2 = getelementptr inbounds nuw i8, ptr %0, i64 32
  %3 = load ptr, ptr %2, align 8, !tbaa !4
  store ptr %0, ptr %3, align 8, !tbaa !27
  %4 = getelementptr inbounds nuw i8, ptr %0, i64 136
  store i32 6, ptr %4, align 8, !tbaa !33
  %5 = tail call i32 @pthread_once(ptr noundef nonnull @decode_init.init_static_once, ptr noundef nonnull @build_requant_tab) #10
  %6 = getelementptr inbounds nuw i8, ptr %3, i64 8
  %7 = getelementptr inbounds nuw i8, ptr %0, i64 64
  %8 = load i32, ptr %7, align 8, !tbaa !34
  tail call void @ff_hpeldsp_init(ptr noundef nonnull %6, i32 noundef %8) #10
  %9 = getelementptr inbounds nuw i8, ptr %0, i64 112
  %10 = load i32, ptr %9, align 8, !tbaa !35
  %11 = getelementptr inbounds nuw i8, ptr %0, i64 116
  %12 = load i32, ptr %11, align 4, !tbaa !36
  %13 = tail call fastcc i32 @allocate_frame_buffers(ptr noundef nonnull %3, ptr noundef %0, i32 noundef %10, i32 noundef %12) #11
  ret i32 %13
}